target datalayout = "e-m:e-p270:32:32-p271:32:32-p272:64:64-i64:64-i128:128-f80:128-n8:16:32:64-S128"
target triple = "x86_64-pc-linux-gnu"

%struct.archive_write = type { %struct.archive, i32, i64, i64, ptr, i64, ptr, ptr, ptr, ptr, ptr, i32, i32, ptr, ptr, ptr, ptr, ptr, ptr, ptr, ptr, ptr, ptr, ptr, ptr, ptr, ptr }
%struct.archive = type { i32, i32, ptr, i32, ptr, i32, i32, ptr, %struct.archive_string, ptr, i32, i32, ptr, ptr, i64, i64, i64, i8, i64 }
%struct.archive_string = type { ptr, i64, i64 }
%struct.shar = type { i32, i32, ptr, i32, ptr, [45 x i8], i64, i32, %struct.archive_string, %struct.archive_string }

; Function Attrs: nounwind uwtable
define internal i32 @archive_write_shar_free(ptr noundef %0) #0 {
  %2 = alloca i32, align 4
  %3 = alloca ptr, align 8
  %4 = alloca ptr, align 8
  %5 = alloca i32, align 4
  store ptr %0, ptr %3, align 8, !tbaa !9
  call void @llvm.lifetime.start.p0(i64 8, ptr %4) #7
  %6 = load ptr, ptr %3, align 8, !tbaa !9
  %7 = getelementptr inbounds nuw %struct.archive_write, ptr %6, i32 0, i32 15
  %8 = load ptr, ptr %7, align 8, !tbaa !32
  store ptr %8, ptr %4, align 8, !tbaa !22
  %9 = load ptr, ptr %4, align 8, !tbaa !22
  %10 = icmp eq ptr %9, null
  br i1 %10, label %11, label %12

11:                                               ; preds = %1
  store i32 0, ptr %2, align 4
  store i32 1, ptr %5, align 4
  br label %26

12:                                               ; preds = %1
  %13 = load ptr, ptr %4, align 8, !tbaa !22
  %14 = getelementptr inbounds nuw %struct.shar, ptr %13, i32 0, i32 2
  %15 = load ptr, ptr %14, align 8, !tbaa !42
  call void @archive_entry_free(ptr noundef %15)
  %16 = load ptr, ptr %4, align 8, !tbaa !22
  %17 = getelementptr inbounds nuw %struct.shar, ptr %16, i32 0, i32 4
  %18 = load ptr, ptr %17, align 8, !tbaa !45
  call void @free(ptr noundef %18) #7
  %19 = load ptr, ptr %4, align 8, !tbaa !22
  %20 = getelementptr inbounds nuw %struct.shar, ptr %19, i32 0, i32 8
  call void @archive_string_free(ptr noundef %20)
  %21 = load ptr, ptr %4, align 8, !tbaa !22
  %22 = getelementptr inbounds nuw %struct.shar, ptr %21, i32 0, i32 9
  call void @archive_string_free(ptr noundef %22)
  %23 = load ptr, ptr %4, align 8, !tbaa !22
  call void @free(ptr noundef %23) #7
  %24 = load ptr, ptr %3, align 8, !tbaa !9
  %25 = getelementptr inbounds nuw %struct.archive_write, ptr %24, i32 0, i32 15
  store ptr null, ptr %25, align 8, !tbaa !32
  store i32 0, ptr %2, align 4
  store i32 1, ptr %5, align 4
  br label %26

26:                                               ; preds = %12, %11
  call void @llvm.lifetime.end.p0(i64 8, ptr %4) #7
  %27 = load i32, ptr %2, align 4
  ret i32 %27
}