; Function Attrs: nounwind uwtable
define internal noundef i32 @archive_write_shar_free(ptr noundef captures(none) %0) #0 {
  %2 = getelementptr inbounds nuw i8, ptr %0, i64 248
  %3 = load ptr, ptr %2, align 8, !tbaa !17
  %4 = icmp eq ptr %3, null
  br i1 %4, label %12, label %5

5:                                                ; preds = %1
  %6 = getelementptr inbounds nuw i8, ptr %3, i64 8
  %7 = load ptr, ptr %6, align 8, !tbaa !28
  tail call void @archive_entry_free(ptr noundef %7) #8
  %8 = getelementptr inbounds nuw i8, ptr %3, i64 24
  %9 = load ptr, ptr %8, align 8, !tbaa !34
  tail call void @free(ptr noundef %9) #8
  %10 = getelementptr inbounds nuw i8, ptr %3, i64 96
  tail call void @archive_string_free(ptr noundef nonnull %10) #8
  %11 = getelementptr inbounds nuw i8, ptr %3, i64 120
  tail call void @archive_string_free(ptr noundef nonnull %11) #8
  tail call void @free(ptr noundef nonnull %3) #8
  store ptr null, ptr %2, align 8, !tbaa !17
  br label %12

12:                                               ; preds = %1, %5
  ret i32 0
}